Certificate:
    Data:
        Version: 3 (0x2)
        Serial Number:
            48:20:65:34:6e:a9:6d:44:5b:d8:68:a2:14:51:57:69
        Signature Algorithm: sha256WithRSAEncryption
        Issuer: CN=2001071
        Validity
            Not Before: Dec 19 10:38:18 2024 GMT
            Not After : Dec  4 10:38:18 2027 GMT
        Subject: CN=client_2
        Subject Public Key Info:
            Public Key Algorithm: rsaEncryption
                RSA Public-Key: (2048 bit)
                Modulus:
                    00:ac:06:e1:4f:61:36:01:d7:9d:6a:54:68:a0:7b:
                    79:d3:d9:5c:02:93:ec:d6:74:0a:15:83:29:3d:2b:
                    1a:e8:77:82:f6:38:e6:13:01:e8:20:98:e8:86:36:
                    60:10:c9:38:0c:1c:77:6c:da:85:41:35:ce:6d:56:
                    c6:74:11:41:3f:52:07:76:bc:36:2f:26:0d:5e:ee:
                    20:6c:38:32:78:da:91:06:d1:17:4c:e0:bc:0e:40:
                    b5:20:f6:af:2d:ac:4d:b4:af:f9:f4:c9:c7:d3:42:
                    c1:87:42:32:85:df:c7:3c:6e:c7:06:92:c0:db:68:
                    ca:4b:5b:12:24:8d:bc:02:99:43:67:ce:fb:d7:be:
                    aa:70:73:c6:68:ca:e9:0b:fb:ba:d9:8a:3a:8d:d7:
                    d0:4a:6c:3d:d5:a5:f3:b9:3a:3a:e8:13:34:f1:1a:
                    73:77:d4:a1:03:3e:9f:0e:41:45:f0:47:6e:e8:24:
                    59:a9:4a:9f:6d:42:f8:6d:88:f4:d1:92:c6:b6:75:
                    88:6a:a3:55:cc:1f:a7:15:50:4d:fe:ea:3b:5b:01:
                    03:0a:59:71:f3:f1:cc:35:0c:7b:e2:40:63:4a:0b:
                    f7:6a:84:e6:16:86:00:36:18:5c:db:68:cb:d6:70:
                    e2:4d:5a:31:d2:32:50:48:e5:e7:e1:82:95:30:4f:
                    5d:67
                Exponent: 65537 (0x10001)
        X509v3 extensions:
            X509v3 Basic Constraints: 
                CA:FALSE
            X509v3 Subject Key Identifier: 
                B0:51:E5:EA:D0:E0:E3:92:69:6C:29:42:D1:27:48:FB:3A:67:2F:20
            X509v3 Authority Key Identifier: 
                keyid:F8:90:BB:17:9F:5B:3A:6C:77:77:D8:CD:33:BA:0B:A7:8F:66:8F:06
                DirName:/CN=2001071
                serial:6C:7E:A7:BD:08:96:75:2E:F4:7A:FF:38:7E:84:C4:CC:D3:A6:10:18

            X509v3 Extended Key Usage: 
                TLS Web Client Authentication
            X509v3 Key Usage: 
                Digital Signature
    Signature Algorithm: sha256WithRSAEncryption
         0c:b7:b6:c6:41:34:61:92:a3:77:c5:08:90:9b:69:8b:e5:a0:
         7b:c3:29:94:38:d9:56:8d:a9:29:47:8c:c3:0b:6a:b4:2f:0f:
         2d:e5:cb:61:e9:f0:28:e6:93:67:02:80:f4:c5:4e:b7:a7:40:
         6e:5f:34:4c:db:8b:67:4a:6b:2d:d2:89:8f:48:f5:d8:aa:ff:
         aa:4b:1a:20:6b:42:36:7f:b8:15:5a:ae:13:ab:d9:90:f7:66:
         87:29:69:47:45:1a:5b:66:28:f6:43:ab:d2:aa:81:e7:54:d4:
         8a:6c:5a:c3:42:b9:31:e1:c6:a3:c6:94:36:08:7d:80:10:0b:
         50:d4:41:db:71:84:bd:14:4a:ca:4c:98:da:ec:f6:da:b8:98:
         bf:30:fe:ef:c5:e9:7e:a3:1c:9d:d4:95:ee:84:7b:46:5f:2d:
         7b:ad:1b:45:92:2f:f0:a7:37:72:66:b3:d2:87:35:6c:c5:bf:
         cf:c7:86:f3:ea:1f:5a:4a:24:0c:d6:34:17:27:f6:ec:57:c1:
         8c:a6:4e:9e:33:9d:1d:da:08:12:32:23:4a:22:a4:fa:b9:c1:
         6e:74:72:3f:90:66:5a:96:6e:eb:06:97:c7:74:11:0d:41:84:
         54:49:35:5e:40:0a:66:bb:f6:b6:48:8a:bf:2b:64:e8:da:1b:
         41:52:54:eb
-----BEGIN CERTIFICATE-----
MIIDTjCCAjagAwIBAgIQSCBlNG6pbURb2GiiFFFXaTANBgkqhkiG9w0BAQsFADAS
MRAwDgYDVQQDDAcyMDAxMDcxMB4XDTI0MTIxOTEwMzgxOFoXDTI3MTIwNDEwMzgx
OFowEzERMA8GA1UEAwwIY2xpZW50XzIwggEiMA0GCSqGSIb3DQEBAQUAA4IBDwAw
ggEKAoIBAQCsBuFPYTYB151qVGige3nT2VwCk+zWdAoVgyk9Kxrod4L2OOYTAegg
mOiGNmAQyTgMHHds2oVBNc5tVsZ0EUE/Ugd2vDYvJg1e7iBsODJ42pEG0RdM4LwO
QLUg9q8trE20r/n0ycfTQsGHQjKF38c8bscGksDbaMpLWxIkjbwCmUNnzvvXvqpw
c8ZoyukL+7rZijqN19BKbD3VpfO5OjroEzTxGnN31KEDPp8OQUXwR27oJFmpSp9t
QvhtiPTRksa2dYhqo1XMH6cVUE3+6jtbAQMKWXHz8cw1DHviQGNKC/dqhOYWhgA2
GFzbaMvWcOJNWjHSMlBI5efhgpUwT11nAgMBAAGjgZ4wgZswCQYDVR0TBAIwADAd
BgNVHQ4EFgQUsFHl6tDg45JpbClC0SdI+zpnLyAwTQYDVR0jBEYwRIAU+JC7F59b
Omx3d9jNM7oLp49mjwahFqQUMBIxEDAOBgNVBAMMBzIwMDEwNzGCFGx+p70IlnUu
9Hr/OH6ExMzTphAYMBMGA1UdJQQMMAoGCCsGAQUFBwMCMAsGA1UdDwQEAwIHgDAN
BgkqhkiG9w0BAQsFAAOCAQEADLe2xkE0YZKjd8UIkJtpi+Wge8MplDjZVo2pKUeM
wwtqtC8PLeXLYenwKOaTZwKA9MVOt6dAbl80TNuLZ0prLdKJj0j12Kr/qksaIGtC
Nn+4FVquE6vZkPdmhylpR0UaW2Yo9kOr0qqB51TUimxaw0K5MeHGo8aUNgh9gBAL
UNRB23GEvRRKykyY2uz22riYvzD+78XpfqMcndSV7oR7Rl8te60bRZIv8Kc3cmaz
0oc1bMW/z8eG8+ofWkokDNY0Fyf27FfBjKZOnjOdHdoIEjIjSiKk+rnBbnRyP5Bm
WpZu6waXx3QRDUGEVEk1XkAKZrv2tkiKvytk6NobQVJU6w==
-----END CERTIFICATE-----
