Certificate:
    Data:
        Version: 3 (0x2)
        Serial Number:
            d1:97:8a:13:6b:ab:18:7a:ed:5a:5d:d9:9f:95:c0:c8
        Signature Algorithm: sha256WithRSAEncryption
        Issuer: CN=2001071
        Validity
            Not Before: Dec 19 10:37:47 2024 GMT
            Not After : Dec  4 10:37:47 2027 GMT
        Subject: CN=client_1
        Subject Public Key Info:
            Public Key Algorithm: rsaEncryption
                RSA Public-Key: (2048 bit)
                Modulus:
                    00:c9:f0:fc:2c:12:81:5c:74:36:51:cb:21:25:16:
                    c8:cd:8f:99:69:4b:14:1c:3a:f8:3a:04:17:51:44:
                    0a:3c:50:23:7b:7c:b7:07:18:41:11:8f:1d:93:ed:
                    79:f3:6f:00:1f:45:c4:72:9f:84:11:bc:8f:d8:3c:
                    2e:3b:1e:ad:70:42:0c:0d:13:fe:1e:ca:3a:c3:f7:
                    06:55:d9:ab:c0:e6:99:15:5b:81:22:f1:cd:ff:2a:
                    7f:93:62:64:f5:1c:fc:47:ca:0d:0d:b7:4c:07:5a:
                    86:2a:c1:d5:83:b9:b1:b3:72:c8:9a:f7:da:6e:b8:
                    ed:3a:89:dd:48:e2:d4:1a:64:8c:32:90:ce:80:a6:
                    a5:a3:16:21:71:3f:2b:c1:3b:46:8f:ef:d5:66:9e:
                    4b:3d:24:fa:2e:c5:36:8e:20:a2:4a:fe:1f:ac:f3:
                    ed:09:ac:9d:38:38:fd:0a:13:55:17:e4:e3:c7:3b:
                    c4:03:4b:24:4d:75:8b:31:d9:98:e6:6b:e2:d9:98:
                    df:4b:fb:ff:fd:c8:73:99:16:4b:71:39:b5:5d:e6:
                    0a:7f:c1:e9:05:80:2d:45:44:88:0f:3d:98:51:8a:
                    bb:09:09:fb:55:c2:a5:1f:30:15:4b:b4:33:e5:89:
                    c2:a7:8e:e8:7b:3f:8e:6e:91:65:be:52:a6:ad:b0:
                    1c:0d
                Exponent: 65537 (0x10001)
        X509v3 extensions:
            X509v3 Basic Constraints: 
                CA:FALSE
            X509v3 Subject Key Identifier: 
                84:37:5D:B4:5D:F0:0B:2E:F0:51:CC:00:91:79:5F:89:27:FE:E2:29
            X509v3 Authority Key Identifier: 
                keyid:F8:90:BB:17:9F:5B:3A:6C:77:77:D8:CD:33:BA:0B:A7:8F:66:8F:06
                DirName:/CN=2001071
                serial:6C:7E:A7:BD:08:96:75:2E:F4:7A:FF:38:7E:84:C4:CC:D3:A6:10:18

            X509v3 Extended Key Usage: 
                TLS Web Client Authentication
            X509v3 Key Usage: 
                Digital Signature
    Signature Algorithm: sha256WithRSAEncryption
         15:8e:a8:a6:3a:26:18:3f:3f:be:4b:45:ac:9a:0e:4e:ee:3f:
         71:fe:ae:f2:d7:9d:b9:e1:e6:df:04:b7:cb:07:69:e5:4b:de:
         13:41:9c:41:bb:fb:3f:16:e1:99:d8:21:2a:8f:6b:58:55:1c:
         5b:fe:2e:58:c8:f2:08:81:f2:a3:a6:e6:94:89:e6:d5:14:af:
         66:62:c1:a0:68:c2:19:79:c6:92:6b:ea:e9:ae:81:55:e6:27:
         71:64:8f:60:8d:b3:43:33:11:4c:95:f0:d7:4d:3f:4d:2d:b5:
         cb:a4:22:dc:df:0d:5d:d5:d9:a9:aa:03:df:7d:d7:b1:2f:ce:
         97:07:8f:b9:57:0f:c9:f3:be:98:a4:55:d3:c0:f7:d6:d5:ad:
         1a:ff:d1:6f:27:a3:28:b6:a5:27:18:cc:c4:45:7b:36:15:b5:
         d5:eb:0d:4d:62:bd:df:f5:de:8a:be:ea:49:ba:82:28:53:11:
         48:21:05:56:ed:55:da:54:17:d8:c0:de:84:39:ab:c7:e3:83:
         6f:06:c0:d5:53:4d:1a:db:07:6e:98:b7:46:7a:d3:09:0f:cb:
         bc:17:fc:4d:71:b1:a3:53:84:58:d9:d9:a5:00:4d:4f:04:af:
         8c:bf:36:73:e2:1d:77:c3:88:10:9e:01:c7:65:c6:f2:fa:7e:
         5a:40:50:a7
-----BEGIN CERTIFICATE-----
MIIDTzCCAjegAwIBAgIRANGXihNrqxh67Vpd2Z+VwMgwDQYJKoZIhvcNAQELBQAw
EjEQMA4GA1UEAwwHMjAwMTA3MTAeFw0yNDEyMTkxMDM3NDdaFw0yNzEyMDQxMDM3
NDdaMBMxETAPBgNVBAMMCGNsaWVudF8xMIIBIjANBgkqhkiG9w0BAQEFAAOCAQ8A
MIIBCgKCAQEAyfD8LBKBXHQ2UcshJRbIzY+ZaUsUHDr4OgQXUUQKPFAje3y3BxhB
EY8dk+15828AH0XEcp+EEbyP2DwuOx6tcEIMDRP+Hso6w/cGVdmrwOaZFVuBIvHN
/yp/k2Jk9Rz8R8oNDbdMB1qGKsHVg7mxs3LImvfabrjtOondSOLUGmSMMpDOgKal
oxYhcT8rwTtGj+/VZp5LPST6LsU2jiCiSv4frPPtCaydODj9ChNVF+TjxzvEA0sk
TXWLMdmY5mvi2ZjfS/v//chzmRZLcTm1XeYKf8HpBYAtRUSIDz2YUYq7CQn7VcKl
HzAVS7Qz5YnCp47oez+ObpFlvlKmrbAcDQIDAQABo4GeMIGbMAkGA1UdEwQCMAAw
HQYDVR0OBBYEFIQ3XbRd8Asu8FHMAJF5X4kn/uIpME0GA1UdIwRGMESAFPiQuxef
Wzpsd3fYzTO6C6ePZo8GoRakFDASMRAwDgYDVQQDDAcyMDAxMDcxghRsfqe9CJZ1
LvR6/zh+hMTM06YQGDATBgNVHSUEDDAKBggrBgEFBQcDAjALBgNVHQ8EBAMCB4Aw
DQYJKoZIhvcNAQELBQADggEBABWOqKY6Jhg/P75LRayaDk7uP3H+rvLXnbnh5t8E
t8sHaeVL3hNBnEG7+z8W4ZnYISqPa1hVHFv+LljI8giB8qOm5pSJ5tUUr2ZiwaBo
whl5xpJr6umugVXmJ3Fkj2CNs0MzEUyV8NdNP00ttcukItzfDV3V2amqA99917Ev
zpcHj7lXD8nzvpikVdPA99bVrRr/0W8noyi2pScYzMRFezYVtdXrDU1ivd/13oq+
6km6gihTEUghBVbtVdpUF9jA3oQ5q8fjg28GwNVTTRrbB26Yt0Z60wkPy7wX/E1x
saNThFjZ2aUATU8Er4y/NnPiHXfDiBCeAcdlxvL6flpAUKc=
-----END CERTIFICATE-----
